target datalayout = "e-m:e-p270:32:32-p271:32:32-p272:64:64-i64:64-i128:128-f80:128-n8:16:32:64-S128"
target triple = "x86_64-pc-linux-gnu"

%struct.AVOption = type { ptr, ptr, i32, i32, %union.anon, double, double, i32, ptr }
%union.anon = type { i64 }

@.str.2 = private unnamed_addr constant [7 x i8] c"sample\00", align 1
@.str.38 = private unnamed_addr constant [62 x i8] c"Value %d for parameter '%s' out of %s format range [%d - %d]\0A\00", align 1

; Function Attrs: nounwind uwtable
define internal i32 @set_format(ptr noundef %0, ptr noundef %1, i32 noundef %2, i32 noundef %3, i32 noundef %4, ptr noundef %5, i32 noundef %6) #0 {
  %8 = alloca i32, align 4
  %9 = alloca ptr, align 8
  %10 = alloca ptr, align 8
  %11 = alloca i32, align 4
  %12 = alloca i32, align 4
  %13 = alloca i32, align 4
  %14 = alloca ptr, align 8
  %15 = alloca i32, align 4
  %16 = alloca ptr, align 8
  %17 = alloca ptr, align 8
  %18 = alloca i32, align 4
  %19 = alloca i32, align 4
  %20 = alloca i32, align 4
  %21 = alloca i32, align 4
  store ptr %0, ptr %9, align 8, !tbaa !4
  store ptr %1, ptr %10, align 8, !tbaa !19
  store i32 %2, ptr %11, align 4, !tbaa !20
  store i32 %3, ptr %12, align 4, !tbaa !20
  store i32 %4, ptr %13, align 4, !tbaa !20
  store ptr %5, ptr %14, align 8, !tbaa !19
  store i32 %6, ptr %15, align 4, !tbaa !20
  call void @llvm.lifetime.start.p0(i64 8, ptr %16) #11
  call void @llvm.lifetime.start.p0(i64 8, ptr %17) #11
  call void @llvm.lifetime.start.p0(i64 4, ptr %18) #11
  call void @llvm.lifetime.start.p0(i64 4, ptr %19) #11
  call void @llvm.lifetime.start.p0(i64 4, ptr %20) #11
  %22 = load ptr, ptr %9, align 8, !tbaa !4
  %23 = load ptr, ptr %10, align 8, !tbaa !19
  %24 = load i32, ptr %12, align 4, !tbaa !20
  %25 = load i32, ptr %13, align 4, !tbaa !20
  %26 = call i32 @opt_set_init(ptr noundef %22, ptr noundef %23, i32 noundef %24, i32 noundef %25, ptr noundef null, ptr noundef %16, ptr noundef %17)
  store i32 %26, ptr %20, align 4, !tbaa !20
  %27 = load i32, ptr %20, align 4, !tbaa !20
  %28 = icmp slt i32 %27, 0
  br i1 %28, label %29, label %31

29:                                               ; preds = %7
  %30 = load i32, ptr %20, align 4, !tbaa !20
  store i32 %30, ptr %8, align 4
  store i32 1, ptr %21, align 4
  br label %79

31:                                               ; preds = %7
  %32 = load ptr, ptr %16, align 8, !tbaa !8
  %33 = getelementptr inbounds nuw %struct.AVOption, ptr %32, i32 0, i32 5
  %34 = load double, ptr %33, align 8, !tbaa !49
  %35 = fcmp nsz ogt double %34, -1.000000e+00
  br i1 %35, label %36, label %40

36:                                               ; preds = %31
  %37 = load ptr, ptr %16, align 8, !tbaa !8
  %38 = getelementptr inbounds nuw %struct.AVOption, ptr %37, i32 0, i32 5
  %39 = load double, ptr %38, align 8, !tbaa !49
  br label %41

40:                                               ; preds = %31
  br label %41

41:                                               ; preds = %40, %36
  %42 = phi nsz double [ %39, %36 ], [ -1.000000e+00, %40 ]
  %43 = fptosi double %42 to i32
  store i32 %43, ptr %18, align 4, !tbaa !20
  %44 = load ptr, ptr %16, align 8, !tbaa !8
  %45 = getelementptr inbounds nuw %struct.AVOption, ptr %44, i32 0, i32 6
  %46 = load double, ptr %45, align 8, !tbaa !50
  %47 = load i32, ptr %15, align 4, !tbaa !20
  %48 = sub nsw i32 %47, 1
  %49 = sitofp i32 %48 to double
  %50 = fcmp nsz ogt double %46, %49
  br i1 %50, label %51, label %55

51:                                               ; preds = %41
  %52 = load i32, ptr %15, align 4, !tbaa !20
  %53 = sub nsw i32 %52, 1
  %54 = sitofp i32 %53 to double
  br label %59

55:                                               ; preds = %41
  %56 = load ptr, ptr %16, align 8, !tbaa !8
  %57 = getelementptr inbounds nuw %struct.AVOption, ptr %56, i32 0, i32 6
  %58 = load double, ptr %57, align 8, !tbaa !50
  br label %59

59:                                               ; preds = %55, %51
  %60 = phi nsz double [ %54, %51 ], [ %58, %55 ]
  %61 = fptosi double %60 to i32
  store i32 %61, ptr %19, align 4, !tbaa !20
  %62 = load i32, ptr %11, align 4, !tbaa !20
  %63 = load i32, ptr %18, align 4, !tbaa !20
  %64 = icmp slt i32 %62, %63
  br i1 %64, label %69, label %65

65:                                               ; preds = %59
  %66 = load i32, ptr %11, align 4, !tbaa !20
  %67 = load i32, ptr %19, align 4, !tbaa !20
  %68 = icmp sgt i32 %66, %67
  br i1 %68, label %69, label %76

69:                                               ; preds = %65, %59
  %70 = load ptr, ptr %9, align 8, !tbaa !4
  %71 = load i32, ptr %11, align 4, !tbaa !20
  %72 = load ptr, ptr %10, align 8, !tbaa !19
  %73 = load ptr, ptr %14, align 8, !tbaa !19
  %74 = load i32, ptr %18, align 4, !tbaa !20
  %75 = load i32, ptr %19, align 4, !tbaa !20
  call void (ptr, i32, ptr, ...) @av_log(ptr noundef %70, i32 noundef 16, ptr noundef @.str.38, i32 noundef %71, ptr noundef %72, ptr noundef %73, i32 noundef %74, i32 noundef %75)
  store i32 -34, ptr %8, align 4
  store i32 1, ptr %21, align 4
  br label %79

76:                                               ; preds = %65
  %77 = load i32, ptr %11, align 4, !tbaa !20
  %78 = load ptr, ptr %17, align 8, !tbaa !30
  store i32 %77, ptr %78, align 4, !tbaa !20
  store i32 0, ptr %8, align 4
  store i32 1, ptr %21, align 4
  br label %79

79:                                               ; preds = %76, %69, %29
  call void @llvm.lifetime.end.p0(i64 4, ptr %20) #11
  call void @llvm.lifetime.end.p0(i64 4, ptr %19) #11
  call void @llvm.lifetime.end.p0(i64 4, ptr %18) #11
  call void @llvm.lifetime.end.p0(i64 8, ptr %17) #11
  call void @llvm.lifetime.end.p0(i64 8, ptr %16) #11
  %80 = load i32, ptr %8, align 4
  ret i32 %80
}

; Function Attrs: nounwind uwtable
define i32 @av_opt_set_sample_fmt(ptr noundef %0, ptr noundef %1, i32 noundef %2, i32 noundef %3) #0 {
  %5 = alloca ptr, align 8
  %6 = alloca ptr, align 8
  %7 = alloca i32, align 4
  %8 = alloca i32, align 4
  store ptr %0, ptr %5, align 8, !tbaa !4
  store ptr %1, ptr %6, align 8, !tbaa !19
  store i32 %2, ptr %7, align 4, !tbaa !20
  store i32 %3, ptr %8, align 4, !tbaa !20
  %9 = load ptr, ptr %5, align 8, !tbaa !4
  %10 = load ptr, ptr %6, align 8, !tbaa !19
  %11 = load i32, ptr %7, align 4, !tbaa !20
  %12 = load i32, ptr %8, align 4, !tbaa !20
  %13 = call i32 @set_format(ptr noundef %9, ptr noundef %10, i32 noundef %11, i32 noundef %12, i32 noundef 14, ptr noundef @.str.2, i32 noundef 12)
  ret i32 %13
}